target datalayout = "e-m:e-p270:32:32-p271:32:32-p272:64:64-i64:64-i128:128-f80:128-n8:16:32:64-S128"
target triple = "x86_64-pc-linux-gnu"

%struct.DdManager = type { %struct.DdNode, ptr, ptr, ptr, ptr, ptr, ptr, ptr, i32, i32, double, double, double, i32, i32, i32, i32, i32, i32, ptr, ptr, %struct.DdSubtable, i32, i32, i32, i32, i32, i32, i32, double, i32, i32, i32, ptr, i64, double, i32, ptr, ptr, ptr, ptr, ptr, ptr, ptr, i32, ptr, ptr, ptr, ptr, ptr, ptr, i32, i32, i32, double, i32, i32, i32, i32, double, double, i32, i32, i32, i32, i32, i32, i32, i32, i32, ptr, ptr, i32, i32, i32, i32, i32, i32, ptr, ptr, ptr, ptr, ptr, ptr, ptr, ptr, i32, i64, i64, i64, i32, i64, i64, double, double, double, double, double, double, i32, ptr, ptr, i64 }
%struct.DdNode = type { i32, i32, ptr, %union.anon, i64 }
%union.anon = type { %struct.DdChildren }
%struct.DdChildren = type { ptr, ptr }
%struct.DdSubtable = type { ptr, i32, i32, i32, i32, i32, i32, i32, i32, i32, i32, i32 }
%struct.Extra_SymmInfo_t_ = type { i32, i32, i32, i32, ptr, ptr }

; Function Attrs: nounwind uwtable
define i32 @Extra_bddCheckVarsSymmetricNaive(ptr noundef %0, ptr noundef %1, i32 noundef %2, i32 noundef %3) #0 {
  %5 = alloca ptr, align 8
  %6 = alloca ptr, align 8
  %7 = alloca i32, align 4
  %8 = alloca i32, align 4
  %9 = alloca ptr, align 8
  %10 = alloca ptr, align 8
  %11 = alloca ptr, align 8
  %12 = alloca ptr, align 8
  %13 = alloca i32, align 4
  store ptr %0, ptr %5, align 8, !tbaa !3
  store ptr %1, ptr %6, align 8, !tbaa !8
  store i32 %2, ptr %7, align 4, !tbaa !31
  store i32 %3, ptr %8, align 4, !tbaa !31
  call void @llvm.lifetime.start.p0(i64 8, ptr %9) #6
  call void @llvm.lifetime.start.p0(i64 8, ptr %10) #6
  call void @llvm.lifetime.start.p0(i64 8, ptr %11) #6
  call void @llvm.lifetime.start.p0(i64 8, ptr %12) #6
  call void @llvm.lifetime.start.p0(i64 4, ptr %13) #6
  %14 = load ptr, ptr %5, align 8, !tbaa !3
  %15 = load ptr, ptr %5, align 8, !tbaa !3
  %16 = getelementptr inbounds nuw %struct.DdManager, ptr %15, i32 0, i32 41
  %17 = load ptr, ptr %16, align 8, !tbaa !64
  %18 = load i32, ptr %7, align 4, !tbaa !31
  %19 = sext i32 %18 to i64
  %20 = getelementptr inbounds ptr, ptr %17, i64 %19
  %21 = load ptr, ptr %20, align 8, !tbaa !8
  %22 = ptrtoint ptr %21 to i64
  %23 = xor i64 %22, 1
  %24 = inttoptr i64 %23 to ptr
  %25 = load ptr, ptr %5, align 8, !tbaa !3
  %26 = getelementptr inbounds nuw %struct.DdManager, ptr %25, i32 0, i32 41
  %27 = load ptr, ptr %26, align 8, !tbaa !64
  %28 = load i32, ptr %8, align 4, !tbaa !31
  %29 = sext i32 %28 to i64
  %30 = getelementptr inbounds ptr, ptr %27, i64 %29
  %31 = load ptr, ptr %30, align 8, !tbaa !8
  %32 = call ptr @Cudd_bddAnd(ptr noundef %14, ptr noundef %24, ptr noundef %31)
  store ptr %32, ptr %9, align 8, !tbaa !8
  %33 = load ptr, ptr %9, align 8, !tbaa !8
  call void @Cudd_Ref(ptr noundef %33)
  %34 = load ptr, ptr %5, align 8, !tbaa !3
  %35 = load ptr, ptr %5, align 8, !tbaa !3
  %36 = getelementptr inbounds nuw %struct.DdManager, ptr %35, i32 0, i32 41
  %37 = load ptr, ptr %36, align 8, !tbaa !64
  %38 = load i32, ptr %8, align 4, !tbaa !31
  %39 = sext i32 %38 to i64
  %40 = getelementptr inbounds ptr, ptr %37, i64 %39
  %41 = load ptr, ptr %40, align 8, !tbaa !8
  %42 = ptrtoint ptr %41 to i64
  %43 = xor i64 %42, 1
  %44 = inttoptr i64 %43 to ptr
  %45 = load ptr, ptr %5, align 8, !tbaa !3
  %46 = getelementptr inbounds nuw %struct.DdManager, ptr %45, i32 0, i32 41
  %47 = load ptr, ptr %46, align 8, !tbaa !64
  %48 = load i32, ptr %7, align 4, !tbaa !31
  %49 = sext i32 %48 to i64
  %50 = getelementptr inbounds ptr, ptr %47, i64 %49
  %51 = load ptr, ptr %50, align 8, !tbaa !8
  %52 = call ptr @Cudd_bddAnd(ptr noundef %34, ptr noundef %44, ptr noundef %51)
  store ptr %52, ptr %10, align 8, !tbaa !8
  %53 = load ptr, ptr %10, align 8, !tbaa !8
  call void @Cudd_Ref(ptr noundef %53)
  %54 = load ptr, ptr %5, align 8, !tbaa !3
  %55 = load ptr, ptr %6, align 8, !tbaa !8
  %56 = load ptr, ptr %9, align 8, !tbaa !8
  %57 = call ptr @Cudd_Cofactor(ptr noundef %54, ptr noundef %55, ptr noundef %56)
  store ptr %57, ptr %11, align 8, !tbaa !8
  %58 = load ptr, ptr %11, align 8, !tbaa !8
  call void @Cudd_Ref(ptr noundef %58)
  %59 = load ptr, ptr %5, align 8, !tbaa !3
  %60 = load ptr, ptr %6, align 8, !tbaa !8
  %61 = load ptr, ptr %10, align 8, !tbaa !8
  %62 = call ptr @Cudd_Cofactor(ptr noundef %59, ptr noundef %60, ptr noundef %61)
  store ptr %62, ptr %12, align 8, !tbaa !8
  %63 = load ptr, ptr %12, align 8, !tbaa !8
  call void @Cudd_Ref(ptr noundef %63)
  %64 = load ptr, ptr %12, align 8, !tbaa !8
  %65 = load ptr, ptr %11, align 8, !tbaa !8
  %66 = icmp eq ptr %64, %65
  %67 = zext i1 %66 to i32
  store i32 %67, ptr %13, align 4, !tbaa !31
  %68 = load ptr, ptr %5, align 8, !tbaa !3
  %69 = load ptr, ptr %11, align 8, !tbaa !8
  call void @Cudd_RecursiveDeref(ptr noundef %68, ptr noundef %69)
  %70 = load ptr, ptr %5, align 8, !tbaa !3
  %71 = load ptr, ptr %12, align 8, !tbaa !8
  call void @Cudd_RecursiveDeref(ptr noundef %70, ptr noundef %71)
  %72 = load ptr, ptr %5, align 8, !tbaa !3
  %73 = load ptr, ptr %9, align 8, !tbaa !8
  call void @Cudd_RecursiveDeref(ptr noundef %72, ptr noundef %73)
  %74 = load ptr, ptr %5, align 8, !tbaa !3
  %75 = load ptr, ptr %10, align 8, !tbaa !8
  call void @Cudd_RecursiveDeref(ptr noundef %74, ptr noundef %75)
  %76 = load i32, ptr %13, align 4, !tbaa !31
  call void @llvm.lifetime.end.p0(i64 4, ptr %13) #6
  call void @llvm.lifetime.end.p0(i64 8, ptr %12) #6
  call void @llvm.lifetime.end.p0(i64 8, ptr %11) #6
  call void @llvm.lifetime.end.p0(i64 8, ptr %10) #6
  call void @llvm.lifetime.end.p0(i64 8, ptr %9) #6
  ret i32 %76
}

; Function Attrs: nounwind uwtable
define ptr @Extra_SymmPairsAllocate(i32 noundef %0) #0 {
  %2 = alloca i32, align 4
  %3 = alloca i32, align 4
  %4 = alloca ptr, align 8
  store i32 %0, ptr %2, align 4, !tbaa !31
  call void @llvm.lifetime.start.p0(i64 4, ptr %3) #6
  call void @llvm.lifetime.start.p0(i64 8, ptr %4) #6
  %5 = call noalias ptr @malloc(i64 noundef 32) #7
  store ptr %5, ptr %4, align 8, !tbaa !10
  %6 = load ptr, ptr %4, align 8, !tbaa !10
  call void @llvm.memset.p0.i64(ptr align 8 %6, i8 0, i64 32, i1 false)
  %7 = load i32, ptr %2, align 4, !tbaa !31
  %8 = load ptr, ptr %4, align 8, !tbaa !10
  %9 = getelementptr inbounds nuw %struct.Extra_SymmInfo_t_, ptr %8, i32 0, i32 0
  store i32 %7, ptr %9, align 8, !tbaa !58
  %10 = load i32, ptr %2, align 4, !tbaa !31
  %11 = sext i32 %10 to i64
  %12 = mul i64 4, %11
  %13 = call noalias ptr @malloc(i64 noundef %12) #7
  %14 = load ptr, ptr %4, align 8, !tbaa !10
  %15 = getelementptr inbounds nuw %struct.Extra_SymmInfo_t_, ptr %14, i32 0, i32 4
  store ptr %13, ptr %15, align 8, !tbaa !40
  %16 = load i32, ptr %2, align 4, !tbaa !31
  %17 = sext i32 %16 to i64
  %18 = mul i64 8, %17
  %19 = call noalias ptr @malloc(i64 noundef %18) #7
  %20 = load ptr, ptr %4, align 8, !tbaa !10
  %21 = getelementptr inbounds nuw %struct.Extra_SymmInfo_t_, ptr %20, i32 0, i32 5
  store ptr %19, ptr %21, align 8, !tbaa !44
  %22 = load i32, ptr %2, align 4, !tbaa !31
  %23 = load i32, ptr %2, align 4, !tbaa !31
  %24 = mul nsw i32 %22, %23
  %25 = sext i32 %24 to i64
  %26 = mul i64 1, %25
  %27 = call noalias ptr @malloc(i64 noundef %26) #7
  %28 = load ptr, ptr %4, align 8, !tbaa !10
  %29 = getelementptr inbounds nuw %struct.Extra_SymmInfo_t_, ptr %28, i32 0, i32 5
  %30 = load ptr, ptr %29, align 8, !tbaa !44
  %31 = getelementptr inbounds ptr, ptr %30, i64 0
  store ptr %27, ptr %31, align 8, !tbaa !45
  %32 = load ptr, ptr %4, align 8, !tbaa !10
  %33 = getelementptr inbounds nuw %struct.Extra_SymmInfo_t_, ptr %32, i32 0, i32 5
  %34 = load ptr, ptr %33, align 8, !tbaa !44
  %35 = getelementptr inbounds ptr, ptr %34, i64 0
  %36 = load ptr, ptr %35, align 8, !tbaa !45
  %37 = load i32, ptr %2, align 4, !tbaa !31
  %38 = load i32, ptr %2, align 4, !tbaa !31
  %39 = mul nsw i32 %37, %38
  %40 = sext i32 %39 to i64
  %41 = mul i64 %40, 1
  call void @llvm.memset.p0.i64(ptr align 1 %36, i8 0, i64 %41, i1 false)
  store i32 1, ptr %3, align 4, !tbaa !31
  br label %42

42:                                               ; preds = %64, %1
  %43 = load i32, ptr %3, align 4, !tbaa !31
  %44 = load i32, ptr %2, align 4, !tbaa !31
  %45 = icmp slt i32 %43, %44
  br i1 %45, label %46, label %67

46:                                               ; preds = %42
  %47 = load ptr, ptr %4, align 8, !tbaa !10
  %48 = getelementptr inbounds nuw %struct.Extra_SymmInfo_t_, ptr %47, i32 0, i32 5
  %49 = load ptr, ptr %48, align 8, !tbaa !44
  %50 = load i32, ptr %3, align 4, !tbaa !31
  %51 = sub nsw i32 %50, 1
  %52 = sext i32 %51 to i64
  %53 = getelementptr inbounds ptr, ptr %49, i64 %52
  %54 = load ptr, ptr %53, align 8, !tbaa !45
  %55 = load i32, ptr %2, align 4, !tbaa !31
  %56 = sext i32 %55 to i64
  %57 = getelementptr inbounds i8, ptr %54, i64 %56
  %58 = load ptr, ptr %4, align 8, !tbaa !10
  %59 = getelementptr inbounds nuw %struct.Extra_SymmInfo_t_, ptr %58, i32 0, i32 5
  %60 = load ptr, ptr %59, align 8, !tbaa !44
  %61 = load i32, ptr %3, align 4, !tbaa !31
  %62 = sext i32 %61 to i64
  %63 = getelementptr inbounds ptr, ptr %60, i64 %62
  store ptr %57, ptr %63, align 8, !tbaa !45
  br label %64

64:                                               ; preds = %46
  %65 = load i32, ptr %3, align 4, !tbaa !31
  %66 = add nsw i32 %65, 1
  store i32 %66, ptr %3, align 4, !tbaa !31
  br label %42, !llvm.loop !59

67:                                               ; preds = %42
  %68 = load ptr, ptr %4, align 8, !tbaa !10
  call void @llvm.lifetime.end.p0(i64 8, ptr %4) #6
  call void @llvm.lifetime.end.p0(i64 4, ptr %3) #6
  ret ptr %68
}

; Function Attrs: nounwind uwtable
define ptr @Extra_SymmPairsComputeNaive(ptr noundef %0, ptr noundef %1) #0 {
  %3 = alloca ptr, align 8
  %4 = alloca ptr, align 8
  %5 = alloca ptr, align 8
  %6 = alloca ptr, align 8
  %7 = alloca i32, align 4
  %8 = alloca ptr, align 8
  %9 = alloca i32, align 4
  %10 = alloca i32, align 4
  store ptr %0, ptr %3, align 8, !tbaa !3
  store ptr %1, ptr %4, align 8, !tbaa !8
  call void @llvm.lifetime.start.p0(i64 8, ptr %5) #6
  call void @llvm.lifetime.start.p0(i64 8, ptr %6) #6
  call void @llvm.lifetime.start.p0(i64 4, ptr %7) #6
  call void @llvm.lifetime.start.p0(i64 8, ptr %8) #6
  call void @llvm.lifetime.start.p0(i64 4, ptr %9) #6
  call void @llvm.lifetime.start.p0(i64 4, ptr %10) #6
  %11 = load ptr, ptr %3, align 8, !tbaa !3
  %12 = load ptr, ptr %4, align 8, !tbaa !8
  %13 = call ptr @Cudd_Support(ptr noundef %11, ptr noundef %12)
  store ptr %13, ptr %5, align 8, !tbaa !8
  %14 = load ptr, ptr %5, align 8, !tbaa !8
  call void @Cudd_Ref(ptr noundef %14)
  %15 = load ptr, ptr %3, align 8, !tbaa !3
  %16 = load ptr, ptr %5, align 8, !tbaa !8
  %17 = call i32 @Extra_bddSuppSize(ptr noundef %15, ptr noundef %16)
  store i32 %17, ptr %7, align 4, !tbaa !31
  %18 = load i32, ptr %7, align 4, !tbaa !31
  %19 = call ptr @Extra_SymmPairsAllocate(i32 noundef %18)
  store ptr %19, ptr %8, align 8, !tbaa !10
  %20 = load ptr, ptr %3, align 8, !tbaa !3
  %21 = getelementptr inbounds nuw %struct.DdManager, ptr %20, i32 0, i32 15
  %22 = load i32, ptr %21, align 8, !tbaa !32
  %23 = load ptr, ptr %8, align 8, !tbaa !10
  %24 = getelementptr inbounds nuw %struct.Extra_SymmInfo_t_, ptr %23, i32 0, i32 1
  store i32 %22, ptr %24, align 4, !tbaa !34
  store i32 0, ptr %9, align 4, !tbaa !31
  %25 = load ptr, ptr %5, align 8, !tbaa !8
  store ptr %25, ptr %6, align 8, !tbaa !8
  br label %26

26:                                               ; preds = %42, %2
  %27 = load ptr, ptr %6, align 8, !tbaa !8
  %28 = load ptr, ptr %3, align 8, !tbaa !3
  %29 = getelementptr inbounds nuw %struct.DdManager, ptr %28, i32 0, i32 1
  %30 = load ptr, ptr %29, align 8, !tbaa !38
  %31 = icmp ne ptr %27, %30
  br i1 %31, label %32, label %49

32:                                               ; preds = %26
  %33 = load ptr, ptr %6, align 8, !tbaa !8
  %34 = getelementptr inbounds nuw %struct.DdNode, ptr %33, i32 0, i32 0
  %35 = load i32, ptr %34, align 8, !tbaa !39
  %36 = load ptr, ptr %8, align 8, !tbaa !10
  %37 = getelementptr inbounds nuw %struct.Extra_SymmInfo_t_, ptr %36, i32 0, i32 4
  %38 = load ptr, ptr %37, align 8, !tbaa !40
  %39 = load i32, ptr %9, align 4, !tbaa !31
  %40 = sext i32 %39 to i64
  %41 = getelementptr inbounds i32, ptr %38, i64 %40
  store i32 %35, ptr %41, align 4, !tbaa !31
  br label %42

42:                                               ; preds = %32
  %43 = load ptr, ptr %6, align 8, !tbaa !8
  %44 = getelementptr inbounds nuw %struct.DdNode, ptr %43, i32 0, i32 3
  %45 = getelementptr inbounds nuw %struct.DdChildren, ptr %44, i32 0, i32 0
  %46 = load ptr, ptr %45, align 8, !tbaa !41
  store ptr %46, ptr %6, align 8, !tbaa !8
  %47 = load i32, ptr %9, align 4, !tbaa !31
  %48 = add nsw i32 %47, 1
  store i32 %48, ptr %9, align 4, !tbaa !31
  br label %26, !llvm.loop !65

49:                                               ; preds = %26
  store i32 0, ptr %9, align 4, !tbaa !31
  br label %50

50:                                               ; preds = %122, %49
  %51 = load i32, ptr %9, align 4, !tbaa !31
  %52 = load i32, ptr %7, align 4, !tbaa !31
  %53 = icmp slt i32 %51, %52
  br i1 %53, label %54, label %125

54:                                               ; preds = %50
  %55 = load i32, ptr %9, align 4, !tbaa !31
  %56 = add nsw i32 %55, 1
  store i32 %56, ptr %10, align 4, !tbaa !31
  br label %57

57:                                               ; preds = %118, %54
  %58 = load i32, ptr %10, align 4, !tbaa !31
  %59 = load i32, ptr %7, align 4, !tbaa !31
  %60 = icmp slt i32 %58, %59
  br i1 %60, label %61, label %121

61:                                               ; preds = %57
  %62 = load ptr, ptr %3, align 8, !tbaa !3
  %63 = load ptr, ptr %4, align 8, !tbaa !8
  %64 = load ptr, ptr %8, align 8, !tbaa !10
  %65 = getelementptr inbounds nuw %struct.Extra_SymmInfo_t_, ptr %64, i32 0, i32 4
  %66 = load ptr, ptr %65, align 8, !tbaa !40
  %67 = load i32, ptr %9, align 4, !tbaa !31
  %68 = sext i32 %67 to i64
  %69 = getelementptr inbounds i32, ptr %66, i64 %68
  %70 = load i32, ptr %69, align 4, !tbaa !31
  %71 = load ptr, ptr %8, align 8, !tbaa !10
  %72 = getelementptr inbounds nuw %struct.Extra_SymmInfo_t_, ptr %71, i32 0, i32 4
  %73 = load ptr, ptr %72, align 8, !tbaa !40
  %74 = load i32, ptr %10, align 4, !tbaa !31
  %75 = sext i32 %74 to i64
  %76 = getelementptr inbounds i32, ptr %73, i64 %75
  %77 = load i32, ptr %76, align 4, !tbaa !31
  %78 = call i32 @Extra_bddCheckVarsSymmetricNaive(ptr noundef %62, ptr noundef %63, i32 noundef %70, i32 noundef %77)
  %79 = trunc i32 %78 to i8
  %80 = load ptr, ptr %8, align 8, !tbaa !10
  %81 = getelementptr inbounds nuw %struct.Extra_SymmInfo_t_, ptr %80, i32 0, i32 5
  %82 = load ptr, ptr %81, align 8, !tbaa !44
  %83 = load i32, ptr %9, align 4, !tbaa !31
  %84 = sext i32 %83 to i64
  %85 = getelementptr inbounds ptr, ptr %82, i64 %84
  %86 = load ptr, ptr %85, align 8, !tbaa !45
  %87 = load i32, ptr %10, align 4, !tbaa !31
  %88 = sext i32 %87 to i64
  %89 = getelementptr inbounds i8, ptr %86, i64 %88
  store i8 %79, ptr %89, align 1, !tbaa !41
  %90 = load ptr, ptr %8, align 8, !tbaa !10
  %91 = getelementptr inbounds nuw %struct.Extra_SymmInfo_t_, ptr %90, i32 0, i32 5
  %92 = load ptr, ptr %91, align 8, !tbaa !44
  %93 = load i32, ptr %10, align 4, !tbaa !31
  %94 = sext i32 %93 to i64
  %95 = getelementptr inbounds ptr, ptr %92, i64 %94
  %96 = load ptr, ptr %95, align 8, !tbaa !45
  %97 = load i32, ptr %9, align 4, !tbaa !31
  %98 = sext i32 %97 to i64
  %99 = getelementptr inbounds i8, ptr %96, i64 %98
  store i8 %79, ptr %99, align 1, !tbaa !41
  %100 = load ptr, ptr %8, align 8, !tbaa !10
  %101 = getelementptr inbounds nuw %struct.Extra_SymmInfo_t_, ptr %100, i32 0, i32 5
  %102 = load ptr, ptr %101, align 8, !tbaa !44
  %103 = load i32, ptr %9, align 4, !tbaa !31
  %104 = sext i32 %103 to i64
  %105 = getelementptr inbounds ptr, ptr %102, i64 %104
  %106 = load ptr, ptr %105, align 8, !tbaa !45
  %107 = load i32, ptr %10, align 4, !tbaa !31
  %108 = sext i32 %107 to i64
  %109 = getelementptr inbounds i8, ptr %106, i64 %108
  %110 = load i8, ptr %109, align 1, !tbaa !41
  %111 = icmp ne i8 %110, 0
  br i1 %111, label %112, label %117

112:                                              ; preds = %61
  %113 = load ptr, ptr %8, align 8, !tbaa !10
  %114 = getelementptr inbounds nuw %struct.Extra_SymmInfo_t_, ptr %113, i32 0, i32 2
  %115 = load i32, ptr %114, align 8, !tbaa !46
  %116 = add nsw i32 %115, 1
  store i32 %116, ptr %114, align 8, !tbaa !46
  br label %117

117:                                              ; preds = %112, %61
  br label %118

118:                                              ; preds = %117
  %119 = load i32, ptr %10, align 4, !tbaa !31
  %120 = add nsw i32 %119, 1
  store i32 %120, ptr %10, align 4, !tbaa !31
  br label %57, !llvm.loop !66

121:                                              ; preds = %57
  br label %122

122:                                              ; preds = %121
  %123 = load i32, ptr %9, align 4, !tbaa !31
  %124 = add nsw i32 %123, 1
  store i32 %124, ptr %9, align 4, !tbaa !31
  br label %50, !llvm.loop !67

125:                                              ; preds = %50
  %126 = load ptr, ptr %3, align 8, !tbaa !3
  %127 = load ptr, ptr %5, align 8, !tbaa !8
  call void @Cudd_RecursiveDeref(ptr noundef %126, ptr noundef %127)
  %128 = load ptr, ptr %8, align 8, !tbaa !10
  call void @llvm.lifetime.end.p0(i64 4, ptr %10) #6
  call void @llvm.lifetime.end.p0(i64 4, ptr %9) #6
  call void @llvm.lifetime.end.p0(i64 8, ptr %8) #6
  call void @llvm.lifetime.end.p0(i64 4, ptr %7) #6
  call void @llvm.lifetime.end.p0(i64 8, ptr %6) #6
  call void @llvm.lifetime.end.p0(i64 8, ptr %5) #6
  ret ptr %128
}