; Function Attrs: nounwind uwtable
define noalias noundef ptr @Extra_SymmPairsComputeNaive(ptr noundef %0, ptr noundef %1) local_unnamed_addr #0 {
  %3 = tail call ptr @Cudd_Support(ptr noundef %0, ptr noundef %1) #10
  tail call void @Cudd_Ref(ptr noundef %3) #10
  %4 = tail call i32 @Extra_bddSuppSize(ptr noundef %0, ptr noundef %3) #10
  %calloc.i = tail call dereferenceable_or_null(32) ptr @calloc(i64 1, i64 32)
  store i32 %4, ptr %calloc.i, align 8, !tbaa !26
  %5 = sext i32 %4 to i64
  %6 = shl nsw i64 %5, 2
  %7 = tail call noalias ptr @malloc(i64 noundef %6) #11
  %8 = getelementptr inbounds nuw i8, ptr %calloc.i, i64 16
  store ptr %7, ptr %8, align 8, !tbaa !29
  %9 = shl nsw i64 %5, 3
  %10 = tail call noalias ptr @malloc(i64 noundef %9) #11
  %11 = getelementptr inbounds nuw i8, ptr %calloc.i, i64 24
  store ptr %10, ptr %11, align 8, !tbaa !30
  %12 = mul nsw i32 %4, %4
  %13 = zext nneg i32 %12 to i64
  %calloc23.i = tail call ptr @calloc(i64 1, i64 %13)
  store ptr %calloc23.i, ptr %10, align 8, !tbaa !31
  %14 = icmp sgt i32 %4, 1
  br i1 %14, label %.lr.ph.preheader.i, label %Extra_SymmPairsAllocate.exit

.lr.ph.preheader.i:                               ; preds = %2
  %wide.trip.count.i = zext nneg i32 %4 to i64
  %load_initial = load ptr, ptr %10, align 8
  br label %.lr.ph.i

.lr.ph.i:                                         ; preds = %.lr.ph.i, %.lr.ph.preheader.i
  %store_forwarded = phi ptr [ %load_initial, %.lr.ph.preheader.i ], [ %16, %.lr.ph.i ]
  %indvars.iv.i = phi i64 [ 1, %.lr.ph.preheader.i ], [ %indvars.iv.next.i, %.lr.ph.i ]
  %15 = getelementptr ptr, ptr %10, i64 %indvars.iv.i
  %16 = getelementptr inbounds nuw i8, ptr %store_forwarded, i64 %5
  store ptr %16, ptr %15, align 8, !tbaa !31
  %indvars.iv.next.i = add nuw nsw i64 %indvars.iv.i, 1
  %exitcond.not.i = icmp eq i64 %indvars.iv.next.i, %wide.trip.count.i
  br i1 %exitcond.not.i, label %Extra_SymmPairsAllocate.exit, label %.lr.ph.i, !llvm.loop !32

Extra_SymmPairsAllocate.exit:                     ; preds = %.lr.ph.i, %2
  %17 = getelementptr inbounds nuw i8, ptr %0, i64 136
  %18 = load i32, ptr %17, align 8, !tbaa !33
  %19 = getelementptr inbounds nuw i8, ptr %calloc.i, i64 4
  store i32 %18, ptr %19, align 4, !tbaa !34
  %20 = getelementptr inbounds nuw i8, ptr %0, i64 40
  %21 = load ptr, ptr %20, align 8, !tbaa !35
  %.not45 = icmp eq ptr %3, %21
  br i1 %.not45, label %.preheader, label %.lr.ph

.preheader:                                       ; preds = %.lr.ph, %Extra_SymmPairsAllocate.exit
  %22 = icmp sgt i32 %4, 0
  br i1 %22, label %.lr.ph51, label %._crit_edge

.lr.ph51:                                         ; preds = %.preheader
  %23 = getelementptr inbounds nuw i8, ptr %0, i64 344
  %24 = getelementptr inbounds nuw i8, ptr %calloc.i, i64 8
  %wide.trip.count61 = zext nneg i32 %4 to i64
  br label %30

.lr.ph:                                           ; preds = %Extra_SymmPairsAllocate.exit, %.lr.ph
  %indvars.iv = phi i64 [ %indvars.iv.next, %.lr.ph ], [ 0, %Extra_SymmPairsAllocate.exit ]
  %.04246 = phi ptr [ %28, %.lr.ph ], [ %3, %Extra_SymmPairsAllocate.exit ]
  %25 = load i32, ptr %.04246, align 8, !tbaa !36
  %26 = getelementptr inbounds nuw i32, ptr %7, i64 %indvars.iv
  store i32 %25, ptr %26, align 4, !tbaa !37
  %27 = getelementptr inbounds nuw i8, ptr %.04246, i64 16
  %28 = load ptr, ptr %27, align 8, !tbaa !38
  %indvars.iv.next = add nuw nsw i64 %indvars.iv, 1
  %.not = icmp eq ptr %28, %21
  br i1 %.not, label %.preheader, label %.lr.ph, !llvm.loop !59

.loopexit:                                        ; preds = %74, %30
  %29 = phi i32 [ %31, %30 ], [ %75, %74 ]
  %indvars.iv.next54 = add nuw nsw i64 %indvars.iv53, 1
  %exitcond62.not = icmp eq i64 %indvars.iv.next59, %wide.trip.count61
  br i1 %exitcond62.not, label %._crit_edge, label %30, !llvm.loop !60

30:                                               ; preds = %.lr.ph51, %.loopexit
  %31 = phi i32 [ 0, %.lr.ph51 ], [ %29, %.loopexit ]
  %indvars.iv58 = phi i64 [ 0, %.lr.ph51 ], [ %indvars.iv.next59, %.loopexit ]
  %indvars.iv53 = phi i64 [ 1, %.lr.ph51 ], [ %indvars.iv.next54, %.loopexit ]
  %indvars.iv.next59 = add nuw nsw i64 %indvars.iv58, 1
  %32 = icmp slt i64 %indvars.iv.next59, %5
  br i1 %32, label %.lr.ph49, label %.loopexit

.lr.ph49:                                         ; preds = %30
  %33 = getelementptr inbounds nuw i32, ptr %7, i64 %indvars.iv58
  %34 = getelementptr inbounds nuw ptr, ptr %10, i64 %indvars.iv58
  br label %35

35:                                               ; preds = %.lr.ph49, %74
  %36 = phi i32 [ %31, %.lr.ph49 ], [ %75, %74 ]
  %indvars.iv55 = phi i64 [ %indvars.iv53, %.lr.ph49 ], [ %indvars.iv.next56, %74 ]
  %37 = load i32, ptr %33, align 4, !tbaa !37
  %38 = getelementptr inbounds nuw i32, ptr %7, i64 %indvars.iv55
  %39 = load i32, ptr %38, align 4, !tbaa !37
  %40 = load ptr, ptr %23, align 8, !tbaa !57
  %41 = sext i32 %37 to i64
  %42 = getelementptr inbounds ptr, ptr %40, i64 %41
  %43 = load ptr, ptr %42, align 8, !tbaa !58
  %44 = ptrtoint ptr %43 to i64
  %45 = xor i64 %44, 1
  %46 = inttoptr i64 %45 to ptr
  %47 = sext i32 %39 to i64
  %48 = getelementptr inbounds ptr, ptr %40, i64 %47
  %49 = load ptr, ptr %48, align 8, !tbaa !58
  %50 = tail call ptr @Cudd_bddAnd(ptr noundef %0, ptr noundef %46, ptr noundef %49) #10
  tail call void @Cudd_Ref(ptr noundef %50) #10
  %51 = load ptr, ptr %23, align 8, !tbaa !57
  %52 = getelementptr inbounds ptr, ptr %51, i64 %47
  %53 = load ptr, ptr %52, align 8, !tbaa !58
  %54 = ptrtoint ptr %53 to i64
  %55 = xor i64 %54, 1
  %56 = inttoptr i64 %55 to ptr
  %57 = getelementptr inbounds ptr, ptr %51, i64 %41
  %58 = load ptr, ptr %57, align 8, !tbaa !58
  %59 = tail call ptr @Cudd_bddAnd(ptr noundef %0, ptr noundef %56, ptr noundef %58) #10
  tail call void @Cudd_Ref(ptr noundef %59) #10
  %60 = tail call ptr @Cudd_Cofactor(ptr noundef %0, ptr noundef %1, ptr noundef %50) #10
  tail call void @Cudd_Ref(ptr noundef %60) #10
  %61 = tail call ptr @Cudd_Cofactor(ptr noundef %0, ptr noundef %1, ptr noundef %59) #10
  tail call void @Cudd_Ref(ptr noundef %61) #10
  %62 = icmp eq ptr %61, %60
  tail call void @Cudd_RecursiveDeref(ptr noundef %0, ptr noundef %60) #10
  tail call void @Cudd_RecursiveDeref(ptr noundef %0, ptr noundef %61) #10
  tail call void @Cudd_RecursiveDeref(ptr noundef %0, ptr noundef %50) #10
  tail call void @Cudd_RecursiveDeref(ptr noundef %0, ptr noundef %59) #10
  %63 = zext i1 %62 to i8
  %64 = load ptr, ptr %34, align 8, !tbaa !31
  %65 = getelementptr inbounds nuw i8, ptr %64, i64 %indvars.iv55
  store i8 %63, ptr %65, align 1, !tbaa !38
  %66 = getelementptr inbounds nuw ptr, ptr %10, i64 %indvars.iv55
  %67 = load ptr, ptr %66, align 8, !tbaa !31
  %68 = getelementptr inbounds nuw i8, ptr %67, i64 %indvars.iv58
  store i8 %63, ptr %68, align 1, !tbaa !38
  %69 = load ptr, ptr %34, align 8, !tbaa !31
  %70 = getelementptr inbounds nuw i8, ptr %69, i64 %indvars.iv55
  %71 = load i8, ptr %70, align 1, !tbaa !38
  %.not44 = icmp eq i8 %71, 0
  br i1 %.not44, label %74, label %72

72:                                               ; preds = %35
  %73 = add nsw i32 %36, 1
  store i32 %73, ptr %24, align 8, !tbaa !42
  br label %74

74:                                               ; preds = %35, %72
  %75 = phi i32 [ %36, %35 ], [ %73, %72 ]
  %indvars.iv.next56 = add nuw nsw i64 %indvars.iv55, 1
  %exitcond.not = icmp eq i64 %indvars.iv.next56, %wide.trip.count61
  br i1 %exitcond.not, label %.loopexit, label %35, !llvm.loop !61

._crit_edge:                                      ; preds = %.loopexit, %.preheader
  tail call void @Cudd_RecursiveDeref(ptr noundef %0, ptr noundef %3) #10
  ret ptr %calloc.i
}